target datalayout = "e-m:e-p270:32:32-p271:32:32-p272:64:64-i64:64-i128:128-f80:128-n8:16:32:64-S128"
target triple = "x86_64-pc-linux-gnu"

; Function Attrs: mustprogress uwtable
define noundef zeroext i1 @_ZN7Imf_3_422isMultiPartOpenExrFileEPKc(ptr noundef %0) #4 {
  %2 = alloca ptr, align 8
  %3 = alloca i8, align 1
  %4 = alloca i8, align 1
  %5 = alloca i8, align 1
  %6 = alloca i8, align 1
  store ptr %0, ptr %2, align 8, !tbaa !3
  call void @llvm.lifetime.start.p0(i64 1, ptr %3) #3
  call void @llvm.lifetime.start.p0(i64 1, ptr %4) #3
  call void @llvm.lifetime.start.p0(i64 1, ptr %5) #3
  call void @llvm.lifetime.start.p0(i64 1, ptr %6) #3
  %7 = load ptr, ptr %2, align 8, !tbaa !3
  %8 = call noundef zeroext i1 @_ZN7Imf_3_413isOpenExrFileEPKcRbS2_S2_(ptr noundef %7, ptr noundef nonnull align 1 dereferenceable(1) %4, ptr noundef nonnull align 1 dereferenceable(1) %5, ptr noundef nonnull align 1 dereferenceable(1) %6)
  %9 = zext i1 %8 to i8
  store i8 %9, ptr %3, align 1, !tbaa !12
  %10 = load i8, ptr %3, align 1, !tbaa !12, !range !19, !noundef !20
  %11 = trunc i8 %10 to i1
  br i1 %11, label %12, label %15

12:                                               ; preds = %1
  %13 = load i8, ptr %6, align 1, !tbaa !12, !range !19, !noundef !20
  %14 = trunc i8 %13 to i1
  br label %15

15:                                               ; preds = %12, %1
  %16 = phi i1 [ false, %1 ], [ %14, %12 ]
  call void @llvm.lifetime.end.p0(i64 1, ptr %6) #3
  call void @llvm.lifetime.end.p0(i64 1, ptr %5) #3
  call void @llvm.lifetime.end.p0(i64 1, ptr %4) #3
  call void @llvm.lifetime.end.p0(i64 1, ptr %3) #3
  ret i1 %16
}